; Function Attrs: mustprogress uwtable
define noundef double @_ZNK5Ipopt14CompoundVector7MinImplEv(ptr noundef nonnull readonly align 8 captures(none) dereferenceable(265) %0) unnamed_addr #0 align 2 {
  %2 = getelementptr inbounds nuw i8, ptr %0, i64 256
  %3 = load ptr, ptr %2, align 8, !tbaa !60
  %4 = getelementptr inbounds nuw i8, ptr %3, i64 16
  %5 = load i32, ptr %4, align 8, !tbaa !37
  %6 = icmp sgt i32 %5, 0
  br i1 %6, label %.lr.ph, label %._crit_edge

.lr.ph:                                           ; preds = %1
  %7 = getelementptr inbounds nuw i8, ptr %0, i64 208
  %8 = getelementptr inbounds nuw i8, ptr %0, i64 232
  br label %9

._crit_edge:                                      ; preds = %38, %1
  %.06.lcssa = phi double [ 0x7FEFFFFFFFFFFFFF, %1 ], [ %.1, %38 ]
  ret double %.06.lcssa

9:                                                ; preds = %.lr.ph, %38
  %.pre16 = phi ptr [ %3, %.lr.ph ], [ %.pre17, %38 ]
  %10 = phi ptr [ %3, %.lr.ph ], [ %39, %38 ]
  %indvars.iv = phi i64 [ 0, %.lr.ph ], [ %indvars.iv.next, %38 ]
  %.0613 = phi double [ 0x7FEFFFFFFFFFFFFF, %.lr.ph ], [ %.1, %38 ]
  %11 = load ptr, ptr %7, align 8, !tbaa !45
  %12 = getelementptr inbounds nuw %"class.Ipopt::SmartPtr.15", ptr %11, i64 %indvars.iv
  %13 = load ptr, ptr %12, align 8, !tbaa !48
  %.not.i = icmp eq ptr %13, null
  br i1 %.not.i, label %_ZNK5Ipopt14CompoundVector9ConstCompEi.exit, label %_ZNK5Ipopt14CompoundVector9ConstCompEi.exit.thread

_ZNK5Ipopt14CompoundVector9ConstCompEi.exit:      ; preds = %9
  %14 = load ptr, ptr %8, align 8, !tbaa !53
  %15 = getelementptr inbounds nuw %"class.Ipopt::SmartPtr.16", ptr %14, i64 %indvars.iv
  %16 = load ptr, ptr %15, align 8, !tbaa !56
  %17 = getelementptr inbounds nuw i8, ptr %16, i64 56
  %18 = load ptr, ptr %17, align 8, !tbaa !10
  %19 = getelementptr inbounds nuw i8, ptr %18, i64 12
  %20 = load i32, ptr %19, align 4, !tbaa !137
  %.not = icmp eq i32 %20, 0
  br i1 %.not, label %38, label %_ZNK5Ipopt14CompoundVector9ConstCompEi.exit9

_ZNK5Ipopt14CompoundVector9ConstCompEi.exit.thread: ; preds = %9
  %21 = getelementptr inbounds nuw i8, ptr %13, i64 56
  %22 = load ptr, ptr %21, align 8, !tbaa !10
  %23 = getelementptr inbounds nuw i8, ptr %22, i64 12
  %24 = load i32, ptr %23, align 4, !tbaa !137
  %.not12 = icmp eq i32 %24, 0
  br i1 %.not12, label %38, label %_ZNK5Ipopt14CompoundVector9ConstCompEi.exit9

_ZNK5Ipopt14CompoundVector9ConstCompEi.exit9:     ; preds = %_ZNK5Ipopt14CompoundVector9ConstCompEi.exit, %_ZNK5Ipopt14CompoundVector9ConstCompEi.exit.thread
  %.0.i8 = phi ptr [ %13, %_ZNK5Ipopt14CompoundVector9ConstCompEi.exit.thread ], [ %16, %_ZNK5Ipopt14CompoundVector9ConstCompEi.exit ]
  %25 = getelementptr inbounds nuw i8, ptr %.0.i8, i64 152
  %26 = load i32, ptr %25, align 8, !tbaa !33
  %27 = getelementptr inbounds nuw i8, ptr %.0.i8, i64 48
  %28 = load i32, ptr %27, align 8, !tbaa !89
  %.not.i10 = icmp eq i32 %26, %28
  br i1 %.not.i10, label %._crit_edge.i, label %29

._crit_edge.i:                                    ; preds = %_ZNK5Ipopt14CompoundVector9ConstCompEi.exit9
  %.phi.trans.insert.i = getelementptr inbounds nuw i8, ptr %.0.i8, i64 160
  %.pre.i = load double, ptr %.phi.trans.insert.i, align 8, !tbaa !94
  br label %_ZNK5Ipopt6Vector3MinEv.exit

29:                                               ; preds = %_ZNK5Ipopt14CompoundVector9ConstCompEi.exit9
  %30 = load ptr, ptr %.0.i8, align 8, !tbaa !8
  %31 = getelementptr inbounds nuw i8, ptr %30, i64 168
  %32 = load ptr, ptr %31, align 8
  %33 = tail call noundef double %32(ptr noundef nonnull align 8 dereferenceable(205) %.0.i8)
  %34 = getelementptr inbounds nuw i8, ptr %.0.i8, i64 160
  store double %33, ptr %34, align 8, !tbaa !94
  %35 = load i32, ptr %27, align 8, !tbaa !89
  store i32 %35, ptr %25, align 8, !tbaa !33
  %.pre.pre = load ptr, ptr %2, align 8, !tbaa !60
  br label %_ZNK5Ipopt6Vector3MinEv.exit

_ZNK5Ipopt6Vector3MinEv.exit:                     ; preds = %._crit_edge.i, %29
  %.pre = phi ptr [ %.pre16, %._crit_edge.i ], [ %.pre.pre, %29 ]
  %36 = phi double [ %.pre.i, %._crit_edge.i ], [ %33, %29 ]
  %37 = fcmp olt double %36, %.0613
  %.sroa.speculated.i = select i1 %37, double %36, double %.0613
  br label %38

38:                                               ; preds = %_ZNK5Ipopt14CompoundVector9ConstCompEi.exit.thread, %_ZNK5Ipopt14CompoundVector9ConstCompEi.exit, %_ZNK5Ipopt6Vector3MinEv.exit
  %.pre17 = phi ptr [ %.pre, %_ZNK5Ipopt6Vector3MinEv.exit ], [ %.pre16, %_ZNK5Ipopt14CompoundVector9ConstCompEi.exit ], [ %.pre16, %_ZNK5Ipopt14CompoundVector9ConstCompEi.exit.thread ]
  %39 = phi ptr [ %.pre, %_ZNK5Ipopt6Vector3MinEv.exit ], [ %10, %_ZNK5Ipopt14CompoundVector9ConstCompEi.exit ], [ %10, %_ZNK5Ipopt14CompoundVector9ConstCompEi.exit.thread ]
  %.1 = phi double [ %.sroa.speculated.i, %_ZNK5Ipopt6Vector3MinEv.exit ], [ %.0613, %_ZNK5Ipopt14CompoundVector9ConstCompEi.exit ], [ %.0613, %_ZNK5Ipopt14CompoundVector9ConstCompEi.exit.thread ]
  %indvars.iv.next = add nuw nsw i64 %indvars.iv, 1
  %40 = getelementptr inbounds nuw i8, ptr %39, i64 16
  %41 = load i32, ptr %40, align 8, !tbaa !37
  %42 = sext i32 %41 to i64
  %43 = icmp slt i64 %indvars.iv.next, %42
  br i1 %43, label %9, label %._crit_edge, !llvm.loop !139
}